target datalayout = "e-m:e-p270:32:32-p271:32:32-p272:64:64-i64:64-i128:128-f80:128-n8:16:32:64-S128"
target triple = "x86_64-pc-linux-gnu"

@.str.257 = private unnamed_addr constant [43 x i8] c"ISO 8650-1 OSI Association Control Service\00", align 1
@.str.258 = private unnamed_addr constant [5 x i8] c"ACSE\00", align 1
@.str.259 = private unnamed_addr constant [5 x i8] c"acse\00", align 1
@proto_acse = hidden global i32 0, align 4
@acse_handle = internal global ptr null, align 8
@.str.260 = private unnamed_addr constant [59 x i8] c"ISO 10035-1 OSI Connectionless Association Control Service\00", align 1
@.str.261 = private unnamed_addr constant [7 x i8] c"CLACSE\00", align 1
@.str.262 = private unnamed_addr constant [7 x i8] c"clacse\00", align 1
@proto_clacse = hidden global i32 0, align 4

; Function Attrs: null_pointer_is_valid sspstrong uwtable
define hidden void @proto_register_acse() #0 {
  %1 = alloca ptr, align 8
  call void @llvm.lifetime.start.p0(i64 8, ptr %1) #6
  %2 = call i32 @proto_register_protocol(ptr noundef @.str.257, ptr noundef @.str.258, ptr noundef @.str.259)
  store i32 %2, ptr @proto_acse, align 4
  %3 = load i32, ptr @proto_acse, align 4
  %4 = call ptr @register_dissector(ptr noundef @.str.259, ptr noundef @dissect_acse, i32 noundef %3)
  store ptr %4, ptr @acse_handle, align 8
  %5 = call i32 @proto_register_protocol(ptr noundef @.str.260, ptr noundef @.str.261, ptr noundef @.str.262)
  store i32 %5, ptr @proto_clacse, align 4
  %6 = load i32, ptr @proto_acse, align 4
  call void @proto_register_field_array(i32 noundef %6, ptr noundef @proto_register_acse.hf, i32 noundef 108)
  call void @proto_register_subtree_array(ptr noundef @proto_register_acse.ett, i32 noundef 36)
  %7 = load i32, ptr @proto_acse, align 4
  %8 = call ptr @expert_register_protocol(i32 noundef %7)
  store ptr %8, ptr %1, align 8
  %9 = load ptr, ptr %1, align 8
  call void @expert_register_field_array(ptr noundef %9, ptr noundef @proto_register_acse.ei, i32 noundef 3)
  call void @llvm.lifetime.end.p0(i64 8, ptr %1) #6
  ret void
}