; Function Attrs: null_pointer_is_valid sspstrong uwtable
define hidden void @proto_register_acse() local_unnamed_addr #0 {
  %1 = tail call i32 @proto_register_protocol(ptr noundef nonnull @.str.257, ptr noundef nonnull @.str.258, ptr noundef nonnull @.str.259)
  store i32 %1, ptr @proto_acse, align 4
  %2 = tail call ptr @register_dissector(ptr noundef nonnull @.str.259, ptr noundef nonnull @dissect_acse, i32 noundef %1)
  store ptr %2, ptr @acse_handle, align 8
  %3 = tail call i32 @proto_register_protocol(ptr noundef nonnull @.str.260, ptr noundef nonnull @.str.261, ptr noundef nonnull @.str.262)
  store i32 %3, ptr @proto_clacse, align 4
  %4 = load i32, ptr @proto_acse, align 4
  tail call void @proto_register_field_array(i32 noundef %4, ptr noundef nonnull @proto_register_acse.hf, i32 noundef 108)
  tail call void @proto_register_subtree_array(ptr noundef nonnull @proto_register_acse.ett, i32 noundef 36)
  %5 = load i32, ptr @proto_acse, align 4
  %6 = tail call ptr @expert_register_protocol(i32 noundef %5)
  tail call void @expert_register_field_array(ptr noundef %6, ptr noundef nonnull @proto_register_acse.ei, i32 noundef 3)
  ret void
}